; ModuleID = 'source-C-CXX/33/2998.cpp'
source_filename = "source-C-CXX/33/2998.cpp"
target datalayout = "e-m:e-p270:32:32-p271:32:32-p272:64:64-i64:64-f80:128-n8:16:32:64-S128"
target triple = "x86_64-pc-linux-gnu"

%"class.std::ios_base::Init" = type { i8 }
%"class.std::basic_istream" = type { i32 (...)**, i64, %"class.std::basic_ios" }
%"class.std::basic_ios" = type { %"class.std::ios_base", %"class.std::basic_ostream"*, i8, i8, %"class.std::basic_streambuf"*, %"class.std::ctype"*, %"class.std::num_put"*, %"class.std::num_get"* }
%"class.std::ios_base" = type { i32 (...)**, i64, i64, i32, i32, i32, %"struct.std::ios_base::_Callback_list"*, %"struct.std::ios_base::_Words", [8 x %"struct.std::ios_base::_Words"], i32, %"struct.std::ios_base::_Words"*, %"class.std::locale" }
%"struct.std::ios_base::_Callback_list" = type { %"struct.std::ios_base::_Callback_list"*, void (i32, %"class.std::ios_base"*, i32)*, i32, i32 }
%"struct.std::ios_base::_Words" = type { i8*, i64 }
%"class.std::locale" = type { %"class.std::locale::_Impl"* }
%"class.std::locale::_Impl" = type { i32, %"class.std::locale::facet"**, i64, %"class.std::locale::facet"**, i8** }
%"class.std::locale::facet" = type <{ i32 (...)**, i32, [4 x i8] }>
%"class.std::basic_ostream" = type { i32 (...)**, %"class.std::basic_ios" }
%"class.std::basic_streambuf" = type { i32 (...)**, i8*, i8*, i8*, i8*, i8*, i8*, %"class.std::locale" }
%"class.std::ctype" = type <{ %"class.std::locale::facet.base", [4 x i8], %struct.__locale_struct*, i8, [7 x i8], i32*, i32*, i16*, i8, [256 x i8], [256 x i8], i8, [6 x i8] }>
%"class.std::locale::facet.base" = type <{ i32 (...)**, i32 }>
%struct.__locale_struct = type { [13 x %struct.__locale_data*], i16*, i32*, i32*, [13 x i8*] }
%struct.__locale_data = type opaque
%"class.std::num_put" = type { %"class.std::locale::facet.base", [4 x i8] }
%"class.std::num_get" = type { %"class.std::locale::facet.base", [4 x i8] }

@_ZStL8__ioinit = internal global %"class.std::ios_base::Init" zeroinitializer, align 1
@__dso_handle = external hidden global i8
@_ZSt3cin = external global %"class.std::basic_istream", align 8
@_ZSt4cout = external global %"class.std::basic_ostream", align 8
@.str = private unnamed_addr constant [4 x i8] c"/2=\00", align 1
@.str.1 = private unnamed_addr constant [6 x i8] c"*3+1=\00", align 1
@.str.2 = private unnamed_addr constant [4 x i8] c"End\00", align 1
@llvm.global_ctors = appending global [1 x { i32, void ()*, i8* }] [{ i32, void ()*, i8* } { i32 65535, void ()* @_GLOBAL__sub_I_2998.cpp, i8* null }]

declare void @_ZNSt8ios_base4InitC1Ev(%"class.std::ios_base::Init"* nonnull align 1 dereferenceable(1)) unnamed_addr #0

; Function Attrs: nounwind
declare void @_ZNSt8ios_base4InitD1Ev(%"class.std::ios_base::Init"* nonnull align 1 dereferenceable(1)) unnamed_addr #1

; Function Attrs: nofree nounwind
declare i32 @__cxa_atexit(void (i8*)*, i8*, i8*) local_unnamed_addr #2

; Function Attrs: mustprogress norecurse sspstrong uwtable
define dso_local i32 @main() local_unnamed_addr #3 {
  %1 = alloca i32, align 4
  %2 = bitcast i32* %1 to i8*
  call void @llvm.lifetime.start.p0i8(i64 4, i8* nonnull %2) #7
  store i32 0, i32* %1, align 4, !tbaa !5
  %3 = call nonnull align 8 dereferenceable(16) %"class.std::basic_istream"* @_ZNSirsERi(%"class.std::basic_istream"* nonnull align 8 dereferenceable(16) @_ZSt3cin, i32* nonnull align 4 dereferenceable(4) %1)
  %4 = load i32, i32* %1, align 4, !tbaa !5
  %5 = icmp eq i32 %4, 1
  br i1 %5, label %89, label %6

6:                                                ; preds = %0, %86
  %7 = phi i32 [ %87, %86 ], [ %4, %0 ]
  %8 = and i32 %7, 1
  %9 = icmp eq i32 %8, 0
  %10 = call nonnull align 8 dereferenceable(8) %"class.std::basic_ostream"* @_ZNSolsEi(%"class.std::basic_ostream"* nonnull align 8 dereferenceable(8) @_ZSt4cout, i32 %7)
  br i1 %9, label %11, label %48

11:                                               ; preds = %6
  %12 = call nonnull align 8 dereferenceable(8) %"class.std::basic_ostream"* @_ZSt16__ostream_insertIcSt11char_traitsIcEERSt13basic_ostreamIT_T0_ES6_PKS3_l(%"class.std::basic_ostream"* nonnull align 8 dereferenceable(8) %10, i8* nonnull getelementptr inbounds ([4 x i8], [4 x i8]* @.str, i64 0, i64 0), i64 3)
  %13 = load i32, i32* %1, align 4, !tbaa !5
  %14 = sitofp i32 %13 to double
  %15 = fmul double %14, 5.000000e-01
  %16 = call nonnull align 8 dereferenceable(8) %"class.std::basic_ostream"* @_ZNSo9_M_insertIdEERSoT_(%"class.std::basic_ostream"* nonnull align 8 dereferenceable(8) %10, double %15)
  %17 = bitcast %"class.std::basic_ostream"* %16 to i8**
  %18 = load i8*, i8** %17, align 8, !tbaa !9
  %19 = getelementptr i8, i8* %18, i64 -24
  %20 = bitcast i8* %19 to i64*
  %21 = load i64, i64* %20, align 8
  %22 = bitcast %"class.std::basic_ostream"* %16 to i8*
  %23 = add nsw i64 %21, 240
  %24 = getelementptr inbounds i8, i8* %22, i64 %23
  %25 = bitcast i8* %24 to %"class.std::ctype"**
  %26 = load %"class.std::ctype"*, %"class.std::ctype"** %25, align 8, !tbaa !11
  %27 = icmp eq %"class.std::ctype"* %26, null
  br i1 %27, label %28, label %29

28:                                               ; preds = %11
  call void @_ZSt16__throw_bad_castv() #8
  unreachable

29:                                               ; preds = %11
  %30 = getelementptr inbounds %"class.std::ctype", %"class.std::ctype"* %26, i64 0, i32 8
  %31 = load i8, i8* %30, align 8, !tbaa !15
  %32 = icmp eq i8 %31, 0
  br i1 %32, label %36, label %33

33:                                               ; preds = %29
  %34 = getelementptr inbounds %"class.std::ctype", %"class.std::ctype"* %26, i64 0, i32 9, i64 10
  %35 = load i8, i8* %34, align 1, !tbaa !17
  br label %42

36:                                               ; preds = %29
  call void @_ZNKSt5ctypeIcE13_M_widen_initEv(%"class.std::ctype"* nonnull align 8 dereferenceable(570) %26)
  %37 = bitcast %"class.std::ctype"* %26 to i8 (%"class.std::ctype"*, i8)***
  %38 = load i8 (%"class.std::ctype"*, i8)**, i8 (%"class.std::ctype"*, i8)*** %37, align 8, !tbaa !9
  %39 = getelementptr inbounds i8 (%"class.std::ctype"*, i8)*, i8 (%"class.std::ctype"*, i8)** %38, i64 6
  %40 = load i8 (%"class.std::ctype"*, i8)*, i8 (%"class.std::ctype"*, i8)** %39, align 8
  %41 = call signext i8 %40(%"class.std::ctype"* nonnull align 8 dereferenceable(570) %26, i8 signext 10)
  br label %42

42:                                               ; preds = %33, %36
  %43 = phi i8 [ %35, %33 ], [ %41, %36 ]
  %44 = call nonnull align 8 dereferenceable(8) %"class.std::basic_ostream"* @_ZNSo3putEc(%"class.std::basic_ostream"* nonnull align 8 dereferenceable(8) %16, i8 signext %43)
  %45 = call nonnull align 8 dereferenceable(8) %"class.std::basic_ostream"* @_ZNSo5flushEv(%"class.std::basic_ostream"* nonnull align 8 dereferenceable(8) %44)
  %46 = load i32, i32* %1, align 4, !tbaa !5
  %47 = sdiv i32 %46, 2
  br label %86

48:                                               ; preds = %6
  %49 = call nonnull align 8 dereferenceable(8) %"class.std::basic_ostream"* @_ZSt16__ostream_insertIcSt11char_traitsIcEERSt13basic_ostreamIT_T0_ES6_PKS3_l(%"class.std::basic_ostream"* nonnull align 8 dereferenceable(8) %10, i8* nonnull getelementptr inbounds ([6 x i8], [6 x i8]* @.str.1, i64 0, i64 0), i64 5)
  %50 = load i32, i32* %1, align 4, !tbaa !5
  %51 = mul nsw i32 %50, 3
  %52 = add nsw i32 %51, 1
  %53 = call nonnull align 8 dereferenceable(8) %"class.std::basic_ostream"* @_ZNSolsEi(%"class.std::basic_ostream"* nonnull align 8 dereferenceable(8) %10, i32 %52)
  %54 = bitcast %"class.std::basic_ostream"* %53 to i8**
  %55 = load i8*, i8** %54, align 8, !tbaa !9
  %56 = getelementptr i8, i8* %55, i64 -24
  %57 = bitcast i8* %56 to i64*
  %58 = load i64, i64* %57, align 8
  %59 = bitcast %"class.std::basic_ostream"* %53 to i8*
  %60 = add nsw i64 %58, 240
  %61 = getelementptr inbounds i8, i8* %59, i64 %60
  %62 = bitcast i8* %61 to %"class.std::ctype"**
  %63 = load %"class.std::ctype"*, %"class.std::ctype"** %62, align 8, !tbaa !11
  %64 = icmp eq %"class.std::ctype"* %63, null
  br i1 %64, label %65, label %66

65:                                               ; preds = %48
  call void @_ZSt16__throw_bad_castv() #8
  unreachable

66:                                               ; preds = %48
  %67 = getelementptr inbounds %"class.std::ctype", %"class.std::ctype"* %63, i64 0, i32 8
  %68 = load i8, i8* %67, align 8, !tbaa !15
  %69 = icmp eq i8 %68, 0
  br i1 %69, label %73, label %70

70:                                               ; preds = %66
  %71 = getelementptr inbounds %"class.std::ctype", %"class.std::ctype"* %63, i64 0, i32 9, i64 10
  %72 = load i8, i8* %71, align 1, !tbaa !17
  br label %79

73:                                               ; preds = %66
  call void @_ZNKSt5ctypeIcE13_M_widen_initEv(%"class.std::ctype"* nonnull align 8 dereferenceable(570) %63)
  %74 = bitcast %"class.std::ctype"* %63 to i8 (%"class.std::ctype"*, i8)***
  %75 = load i8 (%"class.std::ctype"*, i8)**, i8 (%"class.std::ctype"*, i8)*** %74, align 8, !tbaa !9
  %76 = getelementptr inbounds i8 (%"class.std::ctype"*, i8)*, i8 (%"class.std::ctype"*, i8)** %75, i64 6
  %77 = load i8 (%"class.std::ctype"*, i8)*, i8 (%"class.std::ctype"*, i8)** %76, align 8
  %78 = call signext i8 %77(%"class.std::ctype"* nonnull align 8 dereferenceable(570) %63, i8 signext 10)
  br label %79

79:                                               ; preds = %70, %73
  %80 = phi i8 [ %72, %70 ], [ %78, %73 ]
  %81 = call nonnull align 8 dereferenceable(8) %"class.std::basic_ostream"* @_ZNSo3putEc(%"class.std::basic_ostream"* nonnull align 8 dereferenceable(8) %53, i8 signext %80)
  %82 = call nonnull align 8 dereferenceable(8) %"class.std::basic_ostream"* @_ZNSo5flushEv(%"class.std::basic_ostream"* nonnull align 8 dereferenceable(8) %81)
  %83 = load i32, i32* %1, align 4, !tbaa !5
  %84 = mul nsw i32 %83, 3
  %85 = add nsw i32 %84, 1
  br label %86

86:                                               ; preds = %79, %42
  %87 = phi i32 [ %47, %42 ], [ %85, %79 ]
  store i32 %87, i32* %1, align 4, !tbaa !5
  %88 = icmp eq i32 %87, 1
  br i1 %88, label %89, label %6, !llvm.loop !18

89:                                               ; preds = %86, %0
  %90 = call nonnull align 8 dereferenceable(8) %"class.std::basic_ostream"* @_ZSt16__ostream_insertIcSt11char_traitsIcEERSt13basic_ostreamIT_T0_ES6_PKS3_l(%"class.std::basic_ostream"* nonnull align 8 dereferenceable(8) @_ZSt4cout, i8* nonnull getelementptr inbounds ([4 x i8], [4 x i8]* @.str.2, i64 0, i64 0), i64 3)
  %91 = load i8*, i8** bitcast (%"class.std::basic_ostream"* @_ZSt4cout to i8**), align 8, !tbaa !9
  %92 = getelementptr i8, i8* %91, i64 -24
  %93 = bitcast i8* %92 to i64*
  %94 = load i64, i64* %93, align 8
  %95 = add nsw i64 %94, 240
  %96 = getelementptr inbounds i8, i8* bitcast (%"class.std::basic_ostream"* @_ZSt4cout to i8*), i64 %95
  %97 = bitcast i8* %96 to %"class.std::ctype"**
  %98 = load %"class.std::ctype"*, %"class.std::ctype"** %97, align 8, !tbaa !11
  %99 = icmp eq %"class.std::ctype"* %98, null
  br i1 %99, label %100, label %101

100:                                              ; preds = %89
  call void @_ZSt16__throw_bad_castv() #8
  unreachable

101:                                              ; preds = %89
  %102 = getelementptr inbounds %"class.std::ctype", %"class.std::ctype"* %98, i64 0, i32 8
  %103 = load i8, i8* %102, align 8, !tbaa !15
  %104 = icmp eq i8 %103, 0
  br i1 %104, label %108, label %105

105:                                              ; preds = %101
  %106 = getelementptr inbounds %"class.std::ctype", %"class.std::ctype"* %98, i64 0, i32 9, i64 10
  %107 = load i8, i8* %106, align 1, !tbaa !17
  br label %114

108:                                              ; preds = %101
  call void @_ZNKSt5ctypeIcE13_M_widen_initEv(%"class.std::ctype"* nonnull align 8 dereferenceable(570) %98)
  %109 = bitcast %"class.std::ctype"* %98 to i8 (%"class.std::ctype"*, i8)***
  %110 = load i8 (%"class.std::ctype"*, i8)**, i8 (%"class.std::ctype"*, i8)*** %109, align 8, !tbaa !9
  %111 = getelementptr inbounds i8 (%"class.std::ctype"*, i8)*, i8 (%"class.std::ctype"*, i8)** %110, i64 6
  %112 = load i8 (%"class.std::ctype"*, i8)*, i8 (%"class.std::ctype"*, i8)** %111, align 8
  %113 = call signext i8 %112(%"class.std::ctype"* nonnull align 8 dereferenceable(570) %98, i8 signext 10)
  br label %114

114:                                              ; preds = %105, %108
  %115 = phi i8 [ %107, %105 ], [ %113, %108 ]
  %116 = call nonnull align 8 dereferenceable(8) %"class.std::basic_ostream"* @_ZNSo3putEc(%"class.std::basic_ostream"* nonnull align 8 dereferenceable(8) @_ZSt4cout, i8 signext %115)
  %117 = call nonnull align 8 dereferenceable(8) %"class.std::basic_ostream"* @_ZNSo5flushEv(%"class.std::basic_ostream"* nonnull align 8 dereferenceable(8) %116)
  call void @llvm.lifetime.end.p0i8(i64 4, i8* nonnull %2) #7
  ret i32 0
}

; Function Attrs: argmemonly mustprogress nofree nosync nounwind willreturn
declare void @llvm.lifetime.start.p0i8(i64 immarg, i8* nocapture) #4

declare nonnull align 8 dereferenceable(16) %"class.std::basic_istream"* @_ZNSirsERi(%"class.std::basic_istream"* nonnull align 8 dereferenceable(16), i32* nonnull align 4 dereferenceable(4)) local_unnamed_addr #0

declare nonnull align 8 dereferenceable(8) %"class.std::basic_ostream"* @_ZNSolsEi(%"class.std::basic_ostream"* nonnull align 8 dereferenceable(8), i32) local_unnamed_addr #0

; Function Attrs: argmemonly mustprogress nofree nosync nounwind willreturn
declare void @llvm.lifetime.end.p0i8(i64 immarg, i8* nocapture) #4

declare nonnull align 8 dereferenceable(8) %"class.std::basic_ostream"* @_ZSt16__ostream_insertIcSt11char_traitsIcEERSt13basic_ostreamIT_T0_ES6_PKS3_l(%"class.std::basic_ostream"* nonnull align 8 dereferenceable(8), i8*, i64) local_unnamed_addr #0

declare nonnull align 8 dereferenceable(8) %"class.std::basic_ostream"* @_ZNSo9_M_insertIdEERSoT_(%"class.std::basic_ostream"* nonnull align 8 dereferenceable(8), double) local_unnamed_addr #0

declare nonnull align 8 dereferenceable(8) %"class.std::basic_ostream"* @_ZNSo3putEc(%"class.std::basic_ostream"* nonnull align 8 dereferenceable(8), i8 signext) local_unnamed_addr #0

declare nonnull align 8 dereferenceable(8) %"class.std::basic_ostream"* @_ZNSo5flushEv(%"class.std::basic_ostream"* nonnull align 8 dereferenceable(8)) local_unnamed_addr #0

; Function Attrs: noreturn
declare void @_ZSt16__throw_bad_castv() local_unnamed_addr #5

declare void @_ZNKSt5ctypeIcE13_M_widen_initEv(%"class.std::ctype"* nonnull align 8 dereferenceable(570)) local_unnamed_addr #0

; Function Attrs: sspstrong uwtable
define internal void @_GLOBAL__sub_I_2998.cpp() #6 section ".text.startup" {
  tail call void @_ZNSt8ios_base4InitC1Ev(%"class.std::ios_base::Init"* nonnull align 1 dereferenceable(1) @_ZStL8__ioinit)
  %1 = tail call i32 @__cxa_atexit(void (i8*)* bitcast (void (%"class.std::ios_base::Init"*)* @_ZNSt8ios_base4InitD1Ev to void (i8*)*), i8* getelementptr inbounds (%"class.std::ios_base::Init", %"class.std::ios_base::Init"* @_ZStL8__ioinit, i64 0, i32 0), i8* nonnull @__dso_handle) #7
  ret void
}


!llvm.module.flags = !{!0, !1, !2, !3}
!llvm.ident = !{!4}

!0 = !{i32 1, !"wchar_size", i32 4}
!1 = !{i32 7, !"PIC Level", i32 2}
!2 = !{i32 7, !"PIE Level", i32 2}
!3 = !{i32 7, !"uwtable", i32 1}
!4 = !{!"clang version 13.0.0"}
!5 = !{!6, !6, i64 0}
!6 = !{!"int", !7, i64 0}
!7 = !{!"omnipotent char", !8, i64 0}
!8 = !{!"Simple C++ TBAA"}
!9 = !{!10, !10, i64 0}
!10 = !{!"vtable pointer", !8, i64 0}
!11 = !{!12, !13, i64 240}
!12 = !{!"_ZTSSt9basic_iosIcSt11char_traitsIcEE", !13, i64 216, !7, i64 224, !14, i64 225, !13, i64 232, !13, i64 240, !13, i64 248, !13, i64 256}
!13 = !{!"any pointer", !7, i64 0}
!14 = !{!"bool", !7, i64 0}
!15 = !{!16, !7, i64 56}
!16 = !{!"_ZTSSt5ctypeIcE", !13, i64 16, !14, i64 24, !13, i64 32, !13, i64 40, !13, i64 48, !7, i64 56, !7, i64 57, !7, i64 313, !7, i64 569}
!17 = !{!7, !7, i64 0}
!18 = distinct !{!18, !19}
!19 = !{!"llvm.loop.mustprogress"}
